target datalayout = "e-m:e-p270:32:32-p271:32:32-p272:64:64-i64:64-i128:128-f80:128-n8:16:32:64-S128"
target triple = "x86_64-pc-linux-gnu"

%struct.H5VL_blob_specific_args_t = type { i32, %union.anon.13 }
%union.anon.13 = type { %struct.anon.14 }
%struct.anon.14 = type { ptr }

@H5_libterm_g = external global i8, align 1
@.str = private unnamed_addr constant [101 x i8] c"generated/home/dtcxzyw/WorkSpace/Projects/compilers/llvm-opt-benchmark/bench/hdf5/hdf5/src/H5Tvlen.c\00", align 1
@H5T_init_g = external global i8, align 1
@H5E_CANTSET_g = external global i64, align 8
@H5E_DATATYPE_g = external global i64, align 8
@H5E_CANTREMOVE_g = external global i64, align 8
@.str.25 = private unnamed_addr constant [40 x i8] c"unable to remove background heap object\00", align 1
@__func__.H5T__vlen_disk_write = private unnamed_addr constant [21 x i8] c"H5T__vlen_disk_write\00", align 1
@.str.28 = private unnamed_addr constant [19 x i8] c"unable to put blob\00", align 1
@__func__.H5T__vlen_disk_delete = private unnamed_addr constant [22 x i8] c"H5T__vlen_disk_delete\00", align 1
@.str.29 = private unnamed_addr constant [22 x i8] c"unable to delete blob\00", align 1

; Function Attrs: nounwind uwtable
define internal i32 @H5T__vlen_disk_delete(ptr noundef %0, ptr noundef %1) #0 {
  %3 = alloca i32, align 4
  %4 = alloca ptr, align 8
  %5 = alloca ptr, align 8
  %6 = alloca ptr, align 8
  %7 = alloca i32, align 4
  %8 = alloca i8, align 1
  %9 = alloca i64, align 8
  %10 = alloca %struct.H5VL_blob_specific_args_t, align 8
  %11 = alloca i32, align 4
  store ptr %0, ptr %4, align 8, !tbaa !30
  store ptr %1, ptr %5, align 8, !tbaa !38
  call void @llvm.lifetime.start.p0(i64 8, ptr %6) #9
  %12 = load ptr, ptr %5, align 8, !tbaa !38
  store ptr %12, ptr %6, align 8, !tbaa !53
  call void @llvm.lifetime.start.p0(i64 4, ptr %7) #9
  store i32 0, ptr %7, align 4, !tbaa !31
  call void @llvm.lifetime.start.p0(i64 1, ptr %8) #9
  store i8 0, ptr %8, align 1, !tbaa !10
  %13 = load i8, ptr @H5T_init_g, align 1, !tbaa !10, !range !12, !noundef !13
  %14 = trunc i8 %13 to i1
  br i1 %14, label %19, label %15

15:                                               ; preds = %2
  %16 = load i8, ptr @H5_libterm_g, align 1, !tbaa !10, !range !12, !noundef !13
  %17 = trunc i8 %16 to i1
  %18 = xor i1 %17, true
  br label %19

19:                                               ; preds = %15, %2
  %20 = phi i1 [ true, %2 ], [ %18, %15 ]
  %21 = xor i1 %20, true
  %22 = xor i1 %21, true
  %23 = zext i1 %22 to i32
  %24 = sext i32 %23 to i64
  %25 = call i64 @llvm.expect.i64(i64 %24, i64 1)
  %26 = icmp ne i64 %25, 0
  br i1 %26, label %27, label %108

27:                                               ; preds = %19
  %28 = load ptr, ptr %6, align 8, !tbaa !53
  %29 = icmp ne ptr %28, null
  br i1 %29, label %30, label %106

30:                                               ; preds = %27
  call void @llvm.lifetime.start.p0(i64 8, ptr %9) #9
  br label %31

31:                                               ; preds = %30
  %32 = load ptr, ptr %6, align 8, !tbaa !53
  %33 = load i8, ptr %32, align 1, !tbaa !29
  %34 = zext i8 %33 to i32
  %35 = and i32 %34, 255
  %36 = zext i32 %35 to i64
  store i64 %36, ptr %9, align 8, !tbaa !3
  %37 = load ptr, ptr %6, align 8, !tbaa !53
  %38 = getelementptr inbounds nuw i8, ptr %37, i32 1
  store ptr %38, ptr %6, align 8, !tbaa !53
  %39 = load ptr, ptr %6, align 8, !tbaa !53
  %40 = load i8, ptr %39, align 1, !tbaa !29
  %41 = zext i8 %40 to i32
  %42 = and i32 %41, 255
  %43 = shl i32 %42, 8
  %44 = zext i32 %43 to i64
  %45 = load i64, ptr %9, align 8, !tbaa !3
  %46 = or i64 %45, %44
  store i64 %46, ptr %9, align 8, !tbaa !3
  %47 = load ptr, ptr %6, align 8, !tbaa !53
  %48 = getelementptr inbounds nuw i8, ptr %47, i32 1
  store ptr %48, ptr %6, align 8, !tbaa !53
  %49 = load ptr, ptr %6, align 8, !tbaa !53
  %50 = load i8, ptr %49, align 1, !tbaa !29
  %51 = zext i8 %50 to i32
  %52 = and i32 %51, 255
  %53 = shl i32 %52, 16
  %54 = zext i32 %53 to i64
  %55 = load i64, ptr %9, align 8, !tbaa !3
  %56 = or i64 %55, %54
  store i64 %56, ptr %9, align 8, !tbaa !3
  %57 = load ptr, ptr %6, align 8, !tbaa !53
  %58 = getelementptr inbounds nuw i8, ptr %57, i32 1
  store ptr %58, ptr %6, align 8, !tbaa !53
  %59 = load ptr, ptr %6, align 8, !tbaa !53
  %60 = load i8, ptr %59, align 1, !tbaa !29
  %61 = zext i8 %60 to i32
  %62 = and i32 %61, 255
  %63 = shl i32 %62, 24
  %64 = zext i32 %63 to i64
  %65 = load i64, ptr %9, align 8, !tbaa !3
  %66 = or i64 %65, %64
  store i64 %66, ptr %9, align 8, !tbaa !3
  %67 = load ptr, ptr %6, align 8, !tbaa !53
  %68 = getelementptr inbounds nuw i8, ptr %67, i32 1
  store ptr %68, ptr %6, align 8, !tbaa !53
  br label %69

69:                                               ; preds = %31
  br label %70

70:                                               ; preds = %69
  %71 = load i64, ptr %9, align 8, !tbaa !3
  %72 = icmp ugt i64 %71, 0
  br i1 %72, label %73, label %102

73:                                               ; preds = %70
  call void @llvm.lifetime.start.p0(i64 16, ptr %10) #9
  %74 = getelementptr inbounds nuw %struct.H5VL_blob_specific_args_t, ptr %10, i32 0, i32 0
  store i32 0, ptr %74, align 8, !tbaa !60
  %75 = load ptr, ptr %4, align 8, !tbaa !30
  %76 = load ptr, ptr %6, align 8, !tbaa !53
  %77 = call i32 @H5VL_blob_specific(ptr noundef %75, ptr noundef %76, ptr noundef %10)
  %78 = icmp slt i32 %77, 0
  br i1 %78, label %79, label %98

79:                                               ; preds = %73
  br label %80

80:                                               ; preds = %79
  br label %81

81:                                               ; preds = %80
  br label %82

82:                                               ; preds = %81
  %83 = load i64, ptr @H5E_DATATYPE_g, align 8, !tbaa !3
  %84 = load i64, ptr @H5E_CANTREMOVE_g, align 8, !tbaa !3
  %85 = call i32 (ptr, ptr, i32, i64, i64, ptr, ...) @H5E_printf_stack(ptr noundef @.str, ptr noundef @__func__.H5T__vlen_disk_delete, i32 noundef 921, i64 noundef %83, i64 noundef %84, ptr noundef @.str.29)
  br label %86

86:                                               ; preds = %82
  br label %87

87:                                               ; preds = %86
  store i8 1, ptr %8, align 1, !tbaa !10
  %88 = load i8, ptr %8, align 1, !tbaa !10, !range !12, !noundef !13
  %89 = trunc i8 %88 to i1
  %90 = zext i1 %89 to i8
  store i8 %90, ptr %8, align 1, !tbaa !10
  br label %91

91:                                               ; preds = %87
  br label %92

92:                                               ; preds = %91
  br label %93

93:                                               ; preds = %92
  store i32 -1, ptr %7, align 4, !tbaa !31
  store i32 12, ptr %11, align 4
  br label %99

94:                                               ; No predecessors!
  br label %95

95:                                               ; preds = %94
  br label %96

96:                                               ; preds = %95
  br label %97

97:                                               ; preds = %96
  br label %98

98:                                               ; preds = %97, %73
  store i32 0, ptr %11, align 4
  br label %99

99:                                               ; preds = %93, %98
  call void @llvm.lifetime.end.p0(i64 16, ptr %10) #9
  %100 = load i32, ptr %11, align 4
  switch i32 %100, label %103 [
    i32 0, label %101
  ]

101:                                              ; preds = %99
  br label %102

102:                                              ; preds = %101, %70
  store i32 0, ptr %11, align 4
  br label %103

103:                                              ; preds = %102, %99
  call void @llvm.lifetime.end.p0(i64 8, ptr %9) #9
  %104 = load i32, ptr %11, align 4
  switch i32 %104, label %110 [
    i32 0, label %105
    i32 12, label %107
  ]

105:                                              ; preds = %103
  br label %106

106:                                              ; preds = %105, %27
  br label %107

107:                                              ; preds = %106, %103
  br label %108

108:                                              ; preds = %107, %19
  %109 = load i32, ptr %7, align 4, !tbaa !31
  store i32 %109, ptr %3, align 4
  store i32 1, ptr %11, align 4
  br label %110

110:                                              ; preds = %108, %103
  call void @llvm.lifetime.end.p0(i64 1, ptr %8) #9
  call void @llvm.lifetime.end.p0(i64 4, ptr %7) #9
  call void @llvm.lifetime.end.p0(i64 8, ptr %6) #9
  %111 = load i32, ptr %3, align 4
  ret i32 %111
}

; Function Attrs: nounwind uwtable
define internal i32 @H5T__vlen_disk_write(ptr noundef %0, ptr noundef %1, ptr noundef %2, ptr noundef %3, ptr noundef %4, i64 noundef %5, i64 noundef %6) #0 {
  %8 = alloca ptr, align 8
  %9 = alloca ptr, align 8
  %10 = alloca ptr, align 8
  %11 = alloca ptr, align 8
  %12 = alloca ptr, align 8
  %13 = alloca i64, align 8
  %14 = alloca i64, align 8
  %15 = alloca ptr, align 8
  %16 = alloca ptr, align 8
  %17 = alloca i32, align 4
  %18 = alloca i8, align 1
  store ptr %0, ptr %8, align 8, !tbaa !30
  store ptr %1, ptr %9, align 8, !tbaa !38
  store ptr %2, ptr %10, align 8, !tbaa !38
  store ptr %3, ptr %11, align 8, !tbaa !38
  store ptr %4, ptr %12, align 8, !tbaa !38
  store i64 %5, ptr %13, align 8, !tbaa !3
  store i64 %6, ptr %14, align 8, !tbaa !3
  call void @llvm.lifetime.start.p0(i64 8, ptr %15) #9
  %19 = load ptr, ptr %10, align 8, !tbaa !38
  store ptr %19, ptr %15, align 8, !tbaa !53
  call void @llvm.lifetime.start.p0(i64 8, ptr %16) #9
  %20 = load ptr, ptr %12, align 8, !tbaa !38
  store ptr %20, ptr %16, align 8, !tbaa !53
  call void @llvm.lifetime.start.p0(i64 4, ptr %17) #9
  store i32 0, ptr %17, align 4, !tbaa !31
  call void @llvm.lifetime.start.p0(i64 1, ptr %18) #9
  store i8 0, ptr %18, align 1, !tbaa !10
  %21 = load i8, ptr @H5T_init_g, align 1, !tbaa !10, !range !12, !noundef !13
  %22 = trunc i8 %21 to i1
  br i1 %22, label %27, label %23

23:                                               ; preds = %7
  %24 = load i8, ptr @H5_libterm_g, align 1, !tbaa !10, !range !12, !noundef !13
  %25 = trunc i8 %24 to i1
  %26 = xor i1 %25, true
  br label %27

27:                                               ; preds = %23, %7
  %28 = phi i1 [ true, %7 ], [ %26, %23 ]
  %29 = xor i1 %28, true
  %30 = xor i1 %29, true
  %31 = zext i1 %30 to i32
  %32 = sext i32 %31 to i64
  %33 = call i64 @llvm.expect.i64(i64 %32, i64 1)
  %34 = icmp ne i64 %33, 0
  br i1 %34, label %35, label %123

35:                                               ; preds = %27
  %36 = load ptr, ptr %16, align 8, !tbaa !53
  %37 = icmp ne ptr %36, null
  br i1 %37, label %38, label %63

38:                                               ; preds = %35
  %39 = load ptr, ptr %8, align 8, !tbaa !30
  %40 = load ptr, ptr %16, align 8, !tbaa !53
  %41 = call i32 @H5T__vlen_disk_delete(ptr noundef %39, ptr noundef %40)
  %42 = icmp slt i32 %41, 0
  br i1 %42, label %43, label %62

43:                                               ; preds = %38
  br label %44

44:                                               ; preds = %43
  br label %45

45:                                               ; preds = %44
  br label %46

46:                                               ; preds = %45
  %47 = load i64, ptr @H5E_DATATYPE_g, align 8, !tbaa !3
  %48 = load i64, ptr @H5E_CANTREMOVE_g, align 8, !tbaa !3
  %49 = call i32 (ptr, ptr, i32, i64, i64, ptr, ...) @H5E_printf_stack(ptr noundef @.str, ptr noundef @__func__.H5T__vlen_disk_write, i32 noundef 873, i64 noundef %47, i64 noundef %48, ptr noundef @.str.25)
  br label %50

50:                                               ; preds = %46
  br label %51

51:                                               ; preds = %50
  store i8 1, ptr %18, align 1, !tbaa !10
  %52 = load i8, ptr %18, align 1, !tbaa !10, !range !12, !noundef !13
  %53 = trunc i8 %52 to i1
  %54 = zext i1 %53 to i8
  store i8 %54, ptr %18, align 1, !tbaa !10
  br label %55

55:                                               ; preds = %51
  br label %56

56:                                               ; preds = %55
  br label %57

57:                                               ; preds = %56
  store i32 -1, ptr %17, align 4, !tbaa !31
  br label %122

58:                                               ; No predecessors!
  br label %59

59:                                               ; preds = %58
  br label %60

60:                                               ; preds = %59
  br label %61

61:                                               ; preds = %60
  br label %62

62:                                               ; preds = %61, %38
  br label %63

63:                                               ; preds = %62, %35
  br label %64

64:                                               ; preds = %63
  %65 = load i64, ptr %13, align 8, !tbaa !3
  %66 = and i64 %65, 255
  %67 = trunc i64 %66 to i8
  %68 = load ptr, ptr %15, align 8, !tbaa !53
  store i8 %67, ptr %68, align 1, !tbaa !29
  %69 = load ptr, ptr %15, align 8, !tbaa !53
  %70 = getelementptr inbounds nuw i8, ptr %69, i32 1
  store ptr %70, ptr %15, align 8, !tbaa !53
  %71 = load i64, ptr %13, align 8, !tbaa !3
  %72 = lshr i64 %71, 8
  %73 = and i64 %72, 255
  %74 = trunc i64 %73 to i8
  %75 = load ptr, ptr %15, align 8, !tbaa !53
  store i8 %74, ptr %75, align 1, !tbaa !29
  %76 = load ptr, ptr %15, align 8, !tbaa !53
  %77 = getelementptr inbounds nuw i8, ptr %76, i32 1
  store ptr %77, ptr %15, align 8, !tbaa !53
  %78 = load i64, ptr %13, align 8, !tbaa !3
  %79 = lshr i64 %78, 16
  %80 = and i64 %79, 255
  %81 = trunc i64 %80 to i8
  %82 = load ptr, ptr %15, align 8, !tbaa !53
  store i8 %81, ptr %82, align 1, !tbaa !29
  %83 = load ptr, ptr %15, align 8, !tbaa !53
  %84 = getelementptr inbounds nuw i8, ptr %83, i32 1
  store ptr %84, ptr %15, align 8, !tbaa !53
  %85 = load i64, ptr %13, align 8, !tbaa !3
  %86 = lshr i64 %85, 24
  %87 = and i64 %86, 255
  %88 = trunc i64 %87 to i8
  %89 = load ptr, ptr %15, align 8, !tbaa !53
  store i8 %88, ptr %89, align 1, !tbaa !29
  %90 = load ptr, ptr %15, align 8, !tbaa !53
  %91 = getelementptr inbounds nuw i8, ptr %90, i32 1
  store ptr %91, ptr %15, align 8, !tbaa !53
  br label %92

92:                                               ; preds = %64
  br label %93

93:                                               ; preds = %92
  %94 = load ptr, ptr %8, align 8, !tbaa !30
  %95 = load ptr, ptr %11, align 8, !tbaa !38
  %96 = load i64, ptr %13, align 8, !tbaa !3
  %97 = load i64, ptr %14, align 8, !tbaa !3
  %98 = mul i64 %96, %97
  %99 = load ptr, ptr %15, align 8, !tbaa !53
  %100 = call i32 @H5VL_blob_put(ptr noundef %94, ptr noundef %95, i64 noundef %98, ptr noundef %99, ptr noundef null)
  %101 = icmp slt i32 %100, 0
  br i1 %101, label %102, label %121

102:                                              ; preds = %93
  br label %103

103:                                              ; preds = %102
  br label %104

104:                                              ; preds = %103
  br label %105

105:                                              ; preds = %104
  %106 = load i64, ptr @H5E_DATATYPE_g, align 8, !tbaa !3
  %107 = load i64, ptr @H5E_CANTSET_g, align 8, !tbaa !3
  %108 = call i32 (ptr, ptr, i32, i64, i64, ptr, ...) @H5E_printf_stack(ptr noundef @.str, ptr noundef @__func__.H5T__vlen_disk_write, i32 noundef 880, i64 noundef %106, i64 noundef %107, ptr noundef @.str.28)
  br label %109

109:                                              ; preds = %105
  br label %110

110:                                              ; preds = %109
  store i8 1, ptr %18, align 1, !tbaa !10
  %111 = load i8, ptr %18, align 1, !tbaa !10, !range !12, !noundef !13
  %112 = trunc i8 %111 to i1
  %113 = zext i1 %112 to i8
  store i8 %113, ptr %18, align 1, !tbaa !10
  br label %114

114:                                              ; preds = %110
  br label %115

115:                                              ; preds = %114
  br label %116

116:                                              ; preds = %115
  store i32 -1, ptr %17, align 4, !tbaa !31
  br label %122

117:                                              ; No predecessors!
  br label %118

118:                                              ; preds = %117
  br label %119

119:                                              ; preds = %118
  br label %120

120:                                              ; preds = %119
  br label %121

121:                                              ; preds = %120, %93
  br label %122

122:                                              ; preds = %121, %116, %57
  br label %123

123:                                              ; preds = %122, %27
  %124 = load i32, ptr %17, align 4, !tbaa !31
  call void @llvm.lifetime.end.p0(i64 1, ptr %18) #9
  call void @llvm.lifetime.end.p0(i64 4, ptr %17) #9
  call void @llvm.lifetime.end.p0(i64 8, ptr %16) #9
  call void @llvm.lifetime.end.p0(i64 8, ptr %15) #9
  ret i32 %124
}